; Function Attrs: mustprogress nofree norecurse nosync nounwind willreturn memory(read, argmem: write, inaccessiblemem: none) uwtable
define dso_local void @_ZN4Luau8Property7setTypeEPKNS_4TypeE(ptr noundef nonnull writeonly align 8 captures(none) dereferenceable(176) initializes((144, 153)) %0, ptr noundef %1) local_unnamed_addr #13 align 2 personality ptr @__gxx_personality_v0 {
  %3 = getelementptr inbounds nuw i8, ptr %0, i64 144
  store ptr %1, ptr %3, align 8
  %.sroa.42.0..sroa_idx = getelementptr inbounds nuw i8, ptr %0, i64 152
  store i8 1, ptr %.sroa.42.0..sroa_idx, align 8
  %4 = load i8, ptr @_ZN5FFlag12LuauSolverV2E, align 8, !tbaa !257, !range !119, !noundef !118
  %5 = trunc nuw i8 %4 to i1
  br i1 %5, label %6, label %8

6:                                                ; preds = %2
  %7 = getelementptr inbounds nuw i8, ptr %0, i64 160
  store ptr %1, ptr %7, align 8
  %.sroa.4.0..sroa_idx = getelementptr inbounds nuw i8, ptr %0, i64 168
  store i8 1, ptr %.sroa.4.0..sroa_idx, align 8
  br label %8

8:                                                ; preds = %6, %2
  ret void
}